Certificate:
    Data:
        Version: 3 (0x2)
        Serial Number: 0 (0x0)
    Signature Algorithm: md5WithRSAEncryption
        Issuer: C=DE, L=NRW, O=TU DORTMUND, OU=CNI, CN=CA
        Validity
            Not Before: Jun 25 09:29:29 2012 GMT
            Not After : Jun 23 09:29:29 2022 GMT
        Subject: C=DE, L=NRW, O=TU DORTMUND, OU=CNI, CN=Gateway
        Subject Public Key Info:
            Public Key Algorithm: rsaEncryption
                Public-Key: (1024 bit)
                Modulus:
                    00:e9:8d:36:b2:06:e7:81:76:58:91:6b:97:43:bd:
                    91:b8:a7:26:36:1e:d0:4e:dd:f9:6f:f6:2f:a0:fe:
                    9b:86:90:be:6f:4d:89:06:6f:63:4b:c6:1c:86:bb:
                    dd:62:ae:8c:b2:77:8f:4e:5e:e3:ee:22:a7:c2:30:
                    06:4f:99:08:ff:9b:b4:d1:17:73:7c:f2:af:f3:5c:
                    30:71:d5:bc:ab:53:5e:09:a3:d1:11:4b:05:75:83:
                    5f:09:87:90:58:24:c9:f2:d1:bf:ad:eb:ae:b5:48:
                    d3:6a:c1:d5:81:3b:2a:4d:2f:46:36:e1:60:8f:36:
                    96:a5:d9:c5:d9:f3:6c:2a:e7
                Exponent: 65537 (0x10001)
        X509v3 extensions:
            Netscape Cert Type: 
                SSL Client
            X509v3 Key Usage: 
                Digital Signature, Non Repudiation, Key Encipherment, Data Encipherment
            Netscape Comment: 
                gateway:true
            X509v3 Extended Key Usage: 
                Microsoft Server Gated Crypto, Netscape Server Gated Crypto, TLS Web Server Authentication, TLS Web Client Authentication
    Signature Algorithm: md5WithRSAEncryption
         92:84:b2:27:2d:c2:fd:e0:61:a2:af:f1:9e:df:12:a0:ac:58:
         df:28:87:19:01:ff:3a:d9:1f:9a:27:98:9f:09:f3:d7:be:61:
         fa:5a:35:d9:63:51:3b:35:49:49:33:76:97:be:06:bd:bd:0b:
         90:9b:9e:78:bd:0e:d5:d0:d9:39:f1:4c:10:d3:5a:1e:c2:01:
         07:05:7e:84:f8:55:df:38:50:bc:b0:78:af:11:9b:6d:79:a1:
         00:21:c4:3c:3a:43:6e:56:bc:03:35:32:1d:84:4a:3c:1d:cc:
         e1:45:d0:0c:4b:c3:c4:3b:fb:40:af:04:84:36:af:f7:77:76:
         32:ac:d5:8d:ef:6d:59:05:d6:aa:0a:99:93:87:17:61:80:e2:
         f2:d8:ff:04:43:1e:f1:d3:4b:ec:75:f4:4a:a4:54:bb:1a:59:
         10:e4:61:ab:e7:dc:f6:7b:bb:3d:88:97:cd:a3:c7:82:ca:fe:
         a8:3f:94:bb:57:ad:d9:fe:89:ff:9a:07:dd:31:bf:c0:6a:98:
         55:63:05:1b:11:36:64:a8:5d:7a:d5:a0:d1:d0:81:97:0c:0a:
         ea:fb:f0:50:19:72:e3:69:16:0b:3c:24:9b:64:05:90:68:05:
         26:84:59:41:a6:16:e4:57:d7:85:42:e5:c0:12:39:e7:48:94:
         85:67:e5:07
-----BEGIN CERTIFICATE-----
MIIDCTCCAfGgAwIBAgIBADANBgkqhkiG9w0BAQQFADBMMQswCQYDVQQGEwJERTEM
MAoGA1UEBxMDTlJXMRQwEgYDVQQKEwtUVSBET1JUTVVORDEMMAoGA1UECxMDQ05J
MQswCQYDVQQDEwJDQTAeFw0xMjA2MjUwOTI5MjlaFw0yMjA2MjMwOTI5MjlaMFEx
CzAJBgNVBAYTAkRFMQwwCgYDVQQHEwNOUlcxFDASBgNVBAoTC1RVIERPUlRNVU5E
MQwwCgYDVQQLEwNDTkkxEDAOBgNVBAMTB0dhdGV3YXkwgZ8wDQYJKoZIhvcNAQEB
BQADgY0AMIGJAoGBAOmNNrIG54F2WJFrl0O9kbinJjYe0E7d+W/2L6D+m4aQvm9N
iQZvY0vGHIa73WKujLJ3j05e4+4ip8IwBk+ZCP+btNEXc3zyr/NcMHHVvKtTXgmj
0RFLBXWDXwmHkFgkyfLRv63rrrVI02rB1YE7Kk0vRjbhYI82lqXZxdnzbCrnAgMB
AAGjdTBzMBEGCWCGSAGG+EIBAQQEAwIHgDALBgNVHQ8EBAMCBPAwGwYJYIZIAYb4
QgENBA4WDGdhdGV3YXk6dHJ1ZTA0BgNVHSUELTArBgorBgEEAYI3CgMDBglghkgB
hvhCBAEGCCsGAQUFBwMBBggrBgEFBQcDAjANBgkqhkiG9w0BAQQFAAOCAQEAkoSy
Jy3C/eBhoq/xnt8SoKxY3yiHGQH/OtkfmieYnwnz175h+lo12WNROzVJSTN2l74G
vb0LkJueeL0O1dDZOfFMENNaHsIBBwV+hPhV3zhQvLB4rxGbbXmhACHEPDpDbla8
AzUyHYRKPB3M4UXQDEvDxDv7QK8EhDav93d2MqzVje9tWQXWqgqZk4cXYYDi8tj/
BEMe8dNL7HX0SqRUuxpZEORhq+fc9nu7PYiXzaPHgsr+qD+Uu1et2f6J/5oH3TG/
wGqYVWMFGxE2ZKhdetWg0dCBlwwK6vvwUBly42kWCzwkm2QFkGgFJoRZQaYW5FfX
hULlwBI550iUhWflBw==
-----END CERTIFICATE-----
