Certificate:
    Data:
        Version: 3 (0x2)
        Serial Number: 1 (0x1)
    Signature Algorithm: md5WithRSAEncryption
        Issuer: C=DE, L=NRW, O=TU DORTMUND, OU=CNI, CN=CA
        Validity
            Not Before: Jun 25 09:29:33 2012 GMT
            Not After : Jun 23 09:29:33 2022 GMT
        Subject: C=DE, L=NRW, O=TU DORTMUND, OU=CNI, CN=KDC
        Subject Public Key Info:
            Public Key Algorithm: rsaEncryption
                Public-Key: (1024 bit)
                Modulus:
                    00:d6:13:40:4e:a3:55:21:da:c4:32:f9:90:9e:9b:
                    d1:1a:a4:41:d9:b7:0a:96:3b:43:5a:5b:96:51:e6:
                    f6:5a:b8:64:be:c0:48:d0:8c:38:82:ae:83:5b:1f:
                    fa:3a:bc:13:bd:eb:c2:32:8b:40:43:2d:2a:88:74:
                    9c:cd:69:f0:d3:f0:9a:3f:79:3b:4f:92:04:b0:b8:
                    c4:10:c5:2a:37:21:ef:31:c1:48:87:43:8c:3a:c3:
                    00:a9:92:b2:f9:76:54:54:01:c0:ac:8e:16:0b:e5:
                    8c:b3:3f:c7:91:c9:2d:fe:4d:a2:90:e9:0c:40:7c:
                    02:5a:ae:2a:6f:f5:b5:7d:57
                Exponent: 65537 (0x10001)
        X509v3 extensions:
            Netscape Cert Type: 
                SSL Server
            Netscape Comment: 
                kdc:true
            X509v3 Key Usage: 
                Digital Signature, Non Repudiation, Key Encipherment, Data Encipherment
            X509v3 Extended Key Usage: 
                TLS Web Server Authentication
    Signature Algorithm: md5WithRSAEncryption
         9a:cc:fb:2f:1c:f6:7b:8b:fe:e3:df:91:c9:58:d3:1b:c1:8e:
         ea:b1:03:c1:01:f2:5b:85:c3:9f:8e:85:24:c5:8e:f1:cd:75:
         cb:f3:67:f1:f9:21:80:9a:37:65:d4:e1:0e:3c:32:2a:1a:56:
         a9:38:25:68:32:b0:60:69:7f:9f:d9:9a:c0:66:99:4f:b0:10:
         43:16:b8:75:93:8a:41:c5:a9:c9:65:80:99:e4:e6:2d:89:26:
         87:a2:01:8a:f4:cf:c7:23:19:f3:97:45:3b:83:fa:e7:16:f2:
         c1:ea:56:57:ab:90:00:94:62:b8:68:aa:77:3a:dd:f5:0e:6a:
         2e:ac:27:7c:22:83:03:5e:cd:2b:a5:a4:cd:58:d4:31:42:cc:
         78:16:78:5e:dc:a9:88:23:b2:92:8c:a9:93:29:ab:89:d5:d6:
         21:fd:c6:7a:e9:09:87:76:6a:5a:ff:35:ab:9f:67:92:22:d3:
         21:0a:9c:5c:5f:61:66:bd:5a:a7:0a:1a:81:6e:07:5e:40:f6:
         41:f5:1b:e5:22:c3:48:34:a1:51:1d:1d:33:4b:b0:2f:e2:83:
         46:72:35:41:91:47:d7:60:85:0d:6c:10:5b:ab:e9:5d:de:78:
         24:3a:c3:c4:22:d7:62:dd:56:12:cb:47:12:ac:6c:ea:81:d7:
         91:8c:63:90
-----BEGIN CERTIFICATE-----
MIIC4DCCAcigAwIBAgIBATANBgkqhkiG9w0BAQQFADBMMQswCQYDVQQGEwJERTEM
MAoGA1UEBxMDTlJXMRQwEgYDVQQKEwtUVSBET1JUTVVORDEMMAoGA1UECxMDQ05J
MQswCQYDVQQDEwJDQTAeFw0xMjA2MjUwOTI5MzNaFw0yMjA2MjMwOTI5MzNaME0x
CzAJBgNVBAYTAkRFMQwwCgYDVQQHEwNOUlcxFDASBgNVBAoTC1RVIERPUlRNVU5E
MQwwCgYDVQQLEwNDTkkxDDAKBgNVBAMTA0tEQzCBnzANBgkqhkiG9w0BAQEFAAOB
jQAwgYkCgYEA1hNATqNVIdrEMvmQnpvRGqRB2bcKljtDWluWUeb2WrhkvsBI0Iw4
gq6DWx/6OrwTvevCMotAQy0qiHSczWnw0/CaP3k7T5IEsLjEEMUqNyHvMcFIh0OM
OsMAqZKy+XZUVAHArI4WC+WMsz/Hkckt/k2ikOkMQHwCWq4qb/W1fVcCAwEAAaNQ
ME4wEQYJYIZIAYb4QgEBBAQDAgZAMBcGCWCGSAGG+EIBDQQKFghrZGM6dHJ1ZTAL
BgNVHQ8EBAMCBPAwEwYDVR0lBAwwCgYIKwYBBQUHAwEwDQYJKoZIhvcNAQEEBQAD
ggEBAJrM+y8c9nuL/uPfkclY0xvBjuqxA8EB8luFw5+OhSTFjvHNdcvzZ/H5IYCa
N2XU4Q48MioaVqk4JWgysGBpf5/ZmsBmmU+wEEMWuHWTikHFqcllgJnk5i2JJoei
AYr0z8cjGfOXRTuD+ucW8sHqVlerkACUYrhoqnc63fUOai6sJ3wigwNezSulpM1Y
1DFCzHgWeF7cqYgjspKMqZMpq4nV1iH9xnrpCYd2alr/NaufZ5Ii0yEKnFxfYWa9
WqcKGoFuB15A9kH1G+Uiw0g0oVEdHTNLsC/ig0ZyNUGRR9dghQ1sEFur6V3eeCQ6
w8Qi12LdVhLLRxKsbOqB15GMY5A=
-----END CERTIFICATE-----
