Certificate:
    Data:
        Version: 3 (0x2)
        Serial Number: 4 (0x4)
    Signature Algorithm: md5WithRSAEncryption
        Issuer: C=DE, L=NRW, O=TU DORTMUND, OU=CNI, CN=CA
        Validity
            Not Before: Jun 25 09:37:40 2012 GMT
            Not After : Jun 23 09:37:40 2022 GMT
        Subject: C=DE, L=NRW, O=TU DORTMUND, OU=CNI, CN=Gateway-old
        Subject Public Key Info:
            Public Key Algorithm: rsaEncryption
                Public-Key: (1024 bit)
                Modulus:
                    00:e3:ca:9c:ac:15:87:48:26:52:84:b9:29:57:76:
                    e9:f6:ab:91:57:53:72:a9:c7:85:df:62:e3:e5:39:
                    96:0b:b8:f0:51:a9:9e:17:2a:56:6e:ba:fa:03:68:
                    35:0c:93:c0:76:38:61:94:f2:bc:96:ee:73:e4:51:
                    7a:cb:6f:aa:7b:37:1a:e7:f6:5a:f1:a6:78:5b:ca:
                    81:af:0f:7f:1d:c8:7a:43:24:dd:3e:bd:f8:15:0a:
                    bf:d4:fc:26:39:b8:1d:34:cb:bd:74:10:fd:64:50:
                    b0:48:69:35:28:07:d5:ba:b6:7c:5d:b8:ad:23:28:
                    3c:2f:a3:06:67:7b:22:94:fd
                Exponent: 65537 (0x10001)
        X509v3 extensions:
            Netscape Cert Type: 
                SSL Client
            X509v3 Key Usage: 
                Digital Signature, Non Repudiation, Key Encipherment, Data Encipherment
            Netscape Comment: 
                gateway:true
            X509v3 Extended Key Usage: 
                Microsoft Server Gated Crypto, Netscape Server Gated Crypto, TLS Web Server Authentication, TLS Web Client Authentication
    Signature Algorithm: md5WithRSAEncryption
         30:d6:a8:6c:14:97:9a:7d:6c:ab:58:69:86:1a:03:d2:15:cb:
         32:d4:78:18:79:b6:90:00:b8:48:a9:aa:ed:d7:10:41:cf:e4:
         1a:d9:5d:0a:d3:e7:e9:8c:59:10:c6:88:ba:18:63:1b:22:ae:
         01:cb:66:fa:50:f1:f1:d8:1f:23:c8:0b:26:f4:b0:7e:60:f5:
         06:88:c1:c6:10:91:a4:83:b8:02:9d:ee:d6:43:e0:5c:93:e8:
         58:73:a6:05:90:a8:f5:26:47:29:75:55:0d:12:49:06:15:c9:
         25:79:77:88:45:14:43:15:6d:82:fa:2f:de:75:d5:f8:06:e7:
         68:b0:bd:95:3d:51:c7:79:e3:eb:4b:4d:b3:f6:a0:29:13:da:
         fd:a7:f6:5c:a2:6e:a1:1a:9b:cf:b2:42:1d:7a:8a:85:c4:6e:
         5f:cc:c2:29:44:c6:8b:b6:cc:da:08:c7:e1:4b:75:a1:a5:e3:
         73:1b:78:8f:12:f4:49:09:42:5a:8e:a6:83:d6:2f:dc:56:a3:
         f9:8e:68:14:9e:ad:15:df:e4:c3:f1:a7:a7:e9:8a:4d:cc:c9:
         cd:17:0a:b1:55:80:39:bf:1b:66:70:19:49:3f:68:f3:f4:81:
         d5:c2:f5:40:24:56:7e:4a:67:11:1d:54:eb:cf:f8:0c:60:8a:
         1b:21:21:27
-----BEGIN CERTIFICATE-----
MIIDDTCCAfWgAwIBAgIBBDANBgkqhkiG9w0BAQQFADBMMQswCQYDVQQGEwJERTEM
MAoGA1UEBxMDTlJXMRQwEgYDVQQKEwtUVSBET1JUTVVORDEMMAoGA1UECxMDQ05J
MQswCQYDVQQDEwJDQTAeFw0xMjA2MjUwOTM3NDBaFw0yMjA2MjMwOTM3NDBaMFUx
CzAJBgNVBAYTAkRFMQwwCgYDVQQHEwNOUlcxFDASBgNVBAoTC1RVIERPUlRNVU5E
MQwwCgYDVQQLEwNDTkkxFDASBgNVBAMTC0dhdGV3YXktb2xkMIGfMA0GCSqGSIb3
DQEBAQUAA4GNADCBiQKBgQDjypysFYdIJlKEuSlXdun2q5FXU3Kpx4XfYuPlOZYL
uPBRqZ4XKlZuuvoDaDUMk8B2OGGU8ryW7nPkUXrLb6p7Nxrn9lrxpnhbyoGvD38d
yHpDJN0+vfgVCr/U/CY5uB00y710EP1kULBIaTUoB9W6tnxduK0jKDwvowZneyKU
/QIDAQABo3UwczARBglghkgBhvhCAQEEBAMCB4AwCwYDVR0PBAQDAgTwMBsGCWCG
SAGG+EIBDQQOFgxnYXRld2F5OnRydWUwNAYDVR0lBC0wKwYKKwYBBAGCNwoDAwYJ
YIZIAYb4QgQBBggrBgEFBQcDAQYIKwYBBQUHAwIwDQYJKoZIhvcNAQEEBQADggEB
ADDWqGwUl5p9bKtYaYYaA9IVyzLUeBh5tpAAuEipqu3XEEHP5BrZXQrT5+mMWRDG
iLoYYxsirgHLZvpQ8fHYHyPICyb0sH5g9QaIwcYQkaSDuAKd7tZD4FyT6FhzpgWQ
qPUmRyl1VQ0SSQYVySV5d4hFFEMVbYL6L9511fgG52iwvZU9Ucd54+tLTbP2oCkT
2v2n9lyibqEam8+yQh16ioXEbl/MwilExou2zNoIx+FLdaGl43MbeI8S9EkJQlqO
poPWL9xWo/mOaBSerRXf5MPxp6fpik3Myc0XCrFVgDm/G2ZwGUk/aPP0gdXC9UAk
Vn5KZxEdVOvP+AxgihshISc=
-----END CERTIFICATE-----
