Certificate:
    Data:
        Version: 3 (0x2)
        Serial Number: 3 (0x3)
    Signature Algorithm: md5WithRSAEncryption
        Issuer: C=DE, L=NRW, O=TU DORTMUND, OU=CNI, CN=CA
        Validity
            Not Before: Jun 25 09:29:44 2012 GMT
            Not After : Jun 23 09:29:44 2022 GMT
        Subject: C=DE, L=NRW, O=TU DORTMUND, OU=CNI, CN=Router-old
        Subject Public Key Info:
            Public Key Algorithm: rsaEncryption
                Public-Key: (1024 bit)
                Modulus:
                    00:c1:87:82:b2:52:76:8e:d9:43:4c:b8:75:39:1f:
                    ee:48:dd:21:24:0e:5e:e5:df:9e:60:b1:db:12:82:
                    a7:53:74:d2:46:86:47:73:37:7a:42:1c:75:d9:26:
                    77:f9:16:eb:3e:52:9b:83:2c:48:37:76:be:e7:26:
                    bf:f4:34:d3:88:16:f6:a3:d8:b4:6a:9d:5d:2c:4e:
                    4e:4c:b0:5c:97:4e:c9:a5:1f:9b:c1:b2:c8:8f:60:
                    3e:b7:af:3d:18:bb:99:21:34:fb:9f:ad:b2:79:73:
                    b7:ef:35:97:d6:17:91:ad:96:0a:59:dd:9c:d1:75:
                    bf:fb:c3:66:6c:3d:7c:dd:83
                Exponent: 65537 (0x10001)
        X509v3 extensions:
            Netscape Cert Type: 
                SSL Client
            X509v3 Key Usage: 
                Digital Signature, Non Repudiation, Key Encipherment, Data Encipherment
    Signature Algorithm: md5WithRSAEncryption
         69:7d:7a:0a:f5:90:41:24:2e:0b:3c:64:eb:49:f5:08:0c:88:
         2f:e8:9d:ab:7e:09:49:65:e7:dd:65:5a:79:92:d4:76:6b:50:
         a8:3a:ad:af:c4:da:f1:a7:a3:a2:12:5f:67:6f:9c:24:94:44:
         04:e4:1a:f2:28:65:ae:d6:18:0f:98:7b:19:a4:97:e4:95:01:
         7e:3a:1f:9c:0b:45:27:cf:c4:32:e9:d4:b4:6f:55:57:29:4f:
         35:6d:8e:ac:7c:12:f5:fd:3b:d2:d6:bb:63:d9:92:30:3d:da:
         3f:ad:8c:ee:cc:a1:7e:96:57:36:25:05:41:bb:4e:ac:1c:ab:
         46:83:17:44:00:87:df:48:61:43:d9:c5:aa:8d:06:22:31:6a:
         86:bc:be:97:c1:fe:bc:1b:a8:89:21:fc:22:18:01:60:30:43:
         04:4d:e4:8e:ed:4d:6a:79:32:02:1f:64:9e:c4:86:30:9a:53:
         d1:72:65:25:89:bf:0a:68:09:77:2a:b9:f7:b2:e3:46:0a:43:
         53:83:b3:a5:70:7e:8b:b2:60:32:39:af:03:54:09:be:6b:0e:
         95:d2:95:38:52:88:cf:d0:b0:30:3d:37:9f:d2:f8:34:51:d4:
         e3:8d:0f:43:e5:9b:8b:55:ce:2b:0c:87:20:53:da:16:48:34:
         40:dd:e2:e7
-----BEGIN CERTIFICATE-----
MIICuTCCAaGgAwIBAgIBAzANBgkqhkiG9w0BAQQFADBMMQswCQYDVQQGEwJERTEM
MAoGA1UEBxMDTlJXMRQwEgYDVQQKEwtUVSBET1JUTVVORDEMMAoGA1UECxMDQ05J
MQswCQYDVQQDEwJDQTAeFw0xMjA2MjUwOTI5NDRaFw0yMjA2MjMwOTI5NDRaMFQx
CzAJBgNVBAYTAkRFMQwwCgYDVQQHEwNOUlcxFDASBgNVBAoTC1RVIERPUlRNVU5E
MQwwCgYDVQQLEwNDTkkxEzARBgNVBAMTClJvdXRlci1vbGQwgZ8wDQYJKoZIhvcN
AQEBBQADgY0AMIGJAoGBAMGHgrJSdo7ZQ0y4dTkf7kjdISQOXuXfnmCx2xKCp1N0
0kaGR3M3ekIcddkmd/kW6z5Sm4MsSDd2vucmv/Q004gW9qPYtGqdXSxOTkywXJdO
yaUfm8GyyI9gPrevPRi7mSE0+5+tsnlzt+81l9YXka2WClndnNF1v/vDZmw9fN2D
AgMBAAGjIjAgMBEGCWCGSAGG+EIBAQQEAwIHgDALBgNVHQ8EBAMCBPAwDQYJKoZI
hvcNAQEEBQADggEBAGl9egr1kEEkLgs8ZOtJ9QgMiC/onat+CUll591lWnmS1HZr
UKg6ra/E2vGno6ISX2dvnCSURATkGvIoZa7WGA+Yexmkl+SVAX46H5wLRSfPxDLp
1LRvVVcpTzVtjqx8EvX9O9LWu2PZkjA92j+tjO7MoX6WVzYlBUG7Tqwcq0aDF0QA
h99IYUPZxaqNBiIxaoa8vpfB/rwbqIkh/CIYAWAwQwRN5I7tTWp5MgIfZJ7EhjCa
U9FyZSWJvwpoCXcqufey40YKQ1ODs6VwfouyYDI5rwNUCb5rDpXSlThSiM/QsDA9
N5/S+DRR1OOND0Plm4tVzisMhyBT2hZINEDd4uc=
-----END CERTIFICATE-----
