Certificate:
    Data:
        Version: 3 (0x2)
        Serial Number: 2 (0x2)
    Signature Algorithm: md5WithRSAEncryption
        Issuer: C=DE, L=NRW, O=TU DORTMUND, OU=CNI, CN=CA
        Validity
            Not Before: Jun 25 09:29:38 2012 GMT
            Not After : Jun 23 09:29:38 2022 GMT
        Subject: C=DE, L=NRW, O=TU DORTMUND, OU=CNI, CN=Router
        Subject Public Key Info:
            Public Key Algorithm: rsaEncryption
                Public-Key: (1024 bit)
                Modulus:
                    00:a0:fe:ab:8f:69:78:08:26:cf:1a:b8:07:c5:72:
                    4f:6e:85:2c:f2:db:ad:5c:86:57:80:37:1e:0a:b4:
                    00:87:4a:28:ba:32:72:a8:66:00:5d:2f:00:83:26:
                    81:13:81:2c:46:b3:ea:98:69:01:b4:a8:78:67:9c:
                    6a:a8:5b:b1:11:3a:8d:39:30:a7:7d:fd:40:ab:73:
                    b5:93:8e:a4:2b:c7:ec:27:c0:14:61:1d:d0:2e:95:
                    34:4f:c1:4a:e5:b2:f6:43:e5:a6:19:3a:51:52:5c:
                    4c:ba:7b:8c:40:56:0e:11:42:2e:be:cf:44:ed:66:
                    5f:82:31:0a:8e:26:16:e3:91
                Exponent: 65537 (0x10001)
        X509v3 extensions:
            Netscape Cert Type: 
                SSL Client
            X509v3 Key Usage: 
                Digital Signature, Non Repudiation, Key Encipherment, Data Encipherment
    Signature Algorithm: md5WithRSAEncryption
         87:f3:da:0a:ae:c0:e4:13:50:0c:e6:7b:0f:34:40:f6:e0:6a:
         55:88:ee:ec:e7:66:62:2d:c8:33:5a:1d:21:fe:05:c5:24:be:
         90:47:1e:58:12:76:c3:25:c8:4e:2e:c1:d0:42:50:bb:a1:ad:
         af:da:23:a0:85:4d:02:ab:c6:e0:80:78:ff:2c:62:03:91:d8:
         4c:8e:21:e9:1a:11:d1:09:3e:d1:60:b8:23:98:eb:25:88:99:
         cb:18:c6:f7:90:42:39:e1:83:16:4d:86:80:f9:d1:81:a7:9b:
         e3:94:ce:98:93:c2:6e:5e:bf:c4:20:86:69:a2:5a:0b:b9:f0:
         9f:eb:0a:1b:e3:66:72:be:f4:40:a0:d2:40:d6:b3:35:85:f9:
         21:ca:4b:3f:ce:6e:e4:22:56:92:c0:3c:81:ca:1a:85:c7:bf:
         d6:e2:eb:94:14:c0:53:34:b5:b3:7d:10:ee:8f:3c:5a:c5:db:
         66:45:28:e4:5e:97:2b:f5:6c:31:a9:44:10:fe:06:e3:c4:ac:
         1c:ec:c0:91:6f:b9:fa:b5:6f:70:5a:45:7e:cc:a1:b2:1b:3e:
         e7:0a:19:08:17:b7:4f:df:ee:2a:70:f0:44:a2:fd:ac:38:10:
         11:83:29:cf:d0:25:2f:95:9d:4c:d2:12:03:86:06:3d:6a:88:
         71:80:03:cc
-----BEGIN CERTIFICATE-----
MIICtTCCAZ2gAwIBAgIBAjANBgkqhkiG9w0BAQQFADBMMQswCQYDVQQGEwJERTEM
MAoGA1UEBxMDTlJXMRQwEgYDVQQKEwtUVSBET1JUTVVORDEMMAoGA1UECxMDQ05J
MQswCQYDVQQDEwJDQTAeFw0xMjA2MjUwOTI5MzhaFw0yMjA2MjMwOTI5MzhaMFAx
CzAJBgNVBAYTAkRFMQwwCgYDVQQHEwNOUlcxFDASBgNVBAoTC1RVIERPUlRNVU5E
MQwwCgYDVQQLEwNDTkkxDzANBgNVBAMTBlJvdXRlcjCBnzANBgkqhkiG9w0BAQEF
AAOBjQAwgYkCgYEAoP6rj2l4CCbPGrgHxXJPboUs8tutXIZXgDceCrQAh0ooujJy
qGYAXS8AgyaBE4EsRrPqmGkBtKh4Z5xqqFuxETqNOTCnff1Aq3O1k46kK8fsJ8AU
YR3QLpU0T8FK5bL2Q+WmGTpRUlxMunuMQFYOEUIuvs9E7WZfgjEKjiYW45ECAwEA
AaMiMCAwEQYJYIZIAYb4QgEBBAQDAgeAMAsGA1UdDwQEAwIE8DANBgkqhkiG9w0B
AQQFAAOCAQEAh/PaCq7A5BNQDOZ7DzRA9uBqVYju7OdmYi3IM1odIf4FxSS+kEce
WBJ2wyXITi7B0EJQu6Gtr9ojoIVNAqvG4IB4/yxiA5HYTI4h6RoR0Qk+0WC4I5jr
JYiZyxjG95BCOeGDFk2GgPnRgaeb45TOmJPCbl6/xCCGaaJaC7nwn+sKG+Nmcr70
QKDSQNazNYX5IcpLP85u5CJWksA8gcoahce/1uLrlBTAUzS1s30Q7o88WsXbZkUo
5F6XK/VsMalEEP4G48SsHOzAkW+5+rVvcFpFfsyhshs+5woZCBe3T9/uKnDwRKL9
rDgQEYMpz9AlL5WdTNISA4YGPWqIcYADzA==
-----END CERTIFICATE-----
